target datalayout = "e-m:e-p270:32:32-p271:32:32-p272:64:64-i64:64-i128:128-f80:128-n8:16:32:64-S128"
target triple = "x86_64-pc-linux-gnu"

%struct.asdl_expr_seq = type { i64, ptr, [1 x ptr] }
%struct._arguments = type { ptr, ptr, ptr, ptr, ptr, ptr, ptr }
%struct._arg = type { ptr, ptr, ptr, i32, i32, i32, i32 }
%struct.asdl_arg_seq = type { i64, ptr, [1 x ptr] }

@PyExc_ValueError = external global ptr, align 8
@.str.42 = private unnamed_addr constant [48 x i8] c"more positional defaults than args on arguments\00", align 1
@.str.43 = private unnamed_addr constant [65 x i8] c"length of kwonlyargs is not the same as kw_defaults on arguments\00", align 1
@.str.73 = private unnamed_addr constant [35 x i8] c"None disallowed in expression list\00", align 1

; Function Attrs: nounwind uwtable
define internal i32 @validate_exprs(ptr noundef %0, ptr noundef %1, i32 noundef %2, i32 noundef %3) #0 {
  %5 = alloca i32, align 4
  %6 = alloca ptr, align 8
  %7 = alloca ptr, align 8
  %8 = alloca i32, align 4
  %9 = alloca i32, align 4
  %10 = alloca i64, align 8
  %11 = alloca i32, align 4
  %12 = alloca ptr, align 8
  store ptr %0, ptr %6, align 8, !tbaa !31
  store ptr %1, ptr %7, align 8, !tbaa !33
  store i32 %2, ptr %8, align 4, !tbaa !9
  store i32 %3, ptr %9, align 4, !tbaa !9
  call void @llvm.lifetime.start.p0(i64 8, ptr %10) #6
  store i64 0, ptr %10, align 8, !tbaa !34
  br label %13

13:                                               ; preds = %52, %4
  %14 = load i64, ptr %10, align 8, !tbaa !34
  %15 = load ptr, ptr %7, align 8, !tbaa !33
  %16 = icmp eq ptr %15, null
  br i1 %16, label %17, label %18

17:                                               ; preds = %13
  br label %22

18:                                               ; preds = %13
  %19 = load ptr, ptr %7, align 8, !tbaa !33
  %20 = getelementptr inbounds nuw %struct.asdl_expr_seq, ptr %19, i32 0, i32 0
  %21 = load i64, ptr %20, align 8, !tbaa !35
  br label %22

22:                                               ; preds = %18, %17
  %23 = phi i64 [ 0, %17 ], [ %21, %18 ]
  %24 = icmp slt i64 %14, %23
  br i1 %24, label %26, label %25

25:                                               ; preds = %22
  store i32 2, ptr %11, align 4
  br label %55

26:                                               ; preds = %22
  call void @llvm.lifetime.start.p0(i64 8, ptr %12) #6
  %27 = load ptr, ptr %7, align 8, !tbaa !33
  %28 = getelementptr inbounds nuw %struct.asdl_expr_seq, ptr %27, i32 0, i32 2
  %29 = load i64, ptr %10, align 8, !tbaa !34
  %30 = getelementptr [1 x ptr], ptr %28, i64 0, i64 %29
  %31 = load ptr, ptr %30, align 8, !tbaa !41
  store ptr %31, ptr %12, align 8, !tbaa !41
  %32 = load ptr, ptr %12, align 8, !tbaa !41
  %33 = icmp ne ptr %32, null
  br i1 %33, label %34, label %42

34:                                               ; preds = %26
  %35 = load ptr, ptr %6, align 8, !tbaa !31
  %36 = load ptr, ptr %12, align 8, !tbaa !41
  %37 = load i32, ptr %8, align 4, !tbaa !9
  %38 = call i32 @validate_expr(ptr noundef %35, ptr noundef %36, i32 noundef %37)
  %39 = icmp ne i32 %38, 0
  br i1 %39, label %41, label %40

40:                                               ; preds = %34
  store i32 0, ptr %5, align 4
  store i32 1, ptr %11, align 4
  br label %49

41:                                               ; preds = %34
  br label %48

42:                                               ; preds = %26
  %43 = load i32, ptr %9, align 4, !tbaa !9
  %44 = icmp ne i32 %43, 0
  br i1 %44, label %47, label %45

45:                                               ; preds = %42
  %46 = load ptr, ptr @PyExc_ValueError, align 8, !tbaa !30
  call void @PyErr_SetString(ptr noundef %46, ptr noundef @.str.73)
  store i32 0, ptr %5, align 4
  store i32 1, ptr %11, align 4
  br label %49

47:                                               ; preds = %42
  br label %48

48:                                               ; preds = %47, %41
  store i32 0, ptr %11, align 4
  br label %49

49:                                               ; preds = %48, %45, %40
  call void @llvm.lifetime.end.p0(i64 8, ptr %12) #6
  %50 = load i32, ptr %11, align 4
  switch i32 %50, label %55 [
    i32 0, label %51
  ]

51:                                               ; preds = %49
  br label %52

52:                                               ; preds = %51
  %53 = load i64, ptr %10, align 8, !tbaa !34
  %54 = add i64 %53, 1
  store i64 %54, ptr %10, align 8, !tbaa !34
  br label %13, !llvm.loop !49

55:                                               ; preds = %49, %25
  call void @llvm.lifetime.end.p0(i64 8, ptr %10) #6
  %56 = load i32, ptr %11, align 4
  switch i32 %56, label %60 [
    i32 2, label %57
    i32 1, label %58
  ]

57:                                               ; preds = %55
  store i32 1, ptr %5, align 4
  br label %58

58:                                               ; preds = %57, %55
  %59 = load i32, ptr %5, align 4
  ret i32 %59

60:                                               ; preds = %55
  unreachable
}

; Function Attrs: nounwind uwtable
define internal i32 @validate_arguments(ptr noundef %0, ptr noundef %1) #0 {
  %3 = alloca i32, align 4
  %4 = alloca ptr, align 8
  %5 = alloca ptr, align 8
  store ptr %0, ptr %4, align 8, !tbaa !31
  store ptr %1, ptr %5, align 8, !tbaa !87
  %6 = load ptr, ptr %4, align 8, !tbaa !31
  %7 = load ptr, ptr %5, align 8, !tbaa !87
  %8 = getelementptr inbounds nuw %struct._arguments, ptr %7, i32 0, i32 0
  %9 = load ptr, ptr %8, align 8, !tbaa !89
  %10 = call i32 @validate_args(ptr noundef %6, ptr noundef %9)
  %11 = icmp ne i32 %10, 0
  br i1 %11, label %12, label %19

12:                                               ; preds = %2
  %13 = load ptr, ptr %4, align 8, !tbaa !31
  %14 = load ptr, ptr %5, align 8, !tbaa !87
  %15 = getelementptr inbounds nuw %struct._arguments, ptr %14, i32 0, i32 1
  %16 = load ptr, ptr %15, align 8, !tbaa !92
  %17 = call i32 @validate_args(ptr noundef %13, ptr noundef %16)
  %18 = icmp ne i32 %17, 0
  br i1 %18, label %20, label %19

19:                                               ; preds = %12, %2
  store i32 0, ptr %3, align 4
  br label %163

20:                                               ; preds = %12
  %21 = load ptr, ptr %5, align 8, !tbaa !87
  %22 = getelementptr inbounds nuw %struct._arguments, ptr %21, i32 0, i32 2
  %23 = load ptr, ptr %22, align 8, !tbaa !93
  %24 = icmp ne ptr %23, null
  br i1 %24, label %25, label %42

25:                                               ; preds = %20
  %26 = load ptr, ptr %5, align 8, !tbaa !87
  %27 = getelementptr inbounds nuw %struct._arguments, ptr %26, i32 0, i32 2
  %28 = load ptr, ptr %27, align 8, !tbaa !93
  %29 = getelementptr inbounds nuw %struct._arg, ptr %28, i32 0, i32 1
  %30 = load ptr, ptr %29, align 8, !tbaa !94
  %31 = icmp ne ptr %30, null
  br i1 %31, label %32, label %42

32:                                               ; preds = %25
  %33 = load ptr, ptr %4, align 8, !tbaa !31
  %34 = load ptr, ptr %5, align 8, !tbaa !87
  %35 = getelementptr inbounds nuw %struct._arguments, ptr %34, i32 0, i32 2
  %36 = load ptr, ptr %35, align 8, !tbaa !93
  %37 = getelementptr inbounds nuw %struct._arg, ptr %36, i32 0, i32 1
  %38 = load ptr, ptr %37, align 8, !tbaa !94
  %39 = call i32 @validate_expr(ptr noundef %33, ptr noundef %38, i32 noundef 1)
  %40 = icmp ne i32 %39, 0
  br i1 %40, label %42, label %41

41:                                               ; preds = %32
  store i32 0, ptr %3, align 4
  br label %163

42:                                               ; preds = %32, %25, %20
  %43 = load ptr, ptr %4, align 8, !tbaa !31
  %44 = load ptr, ptr %5, align 8, !tbaa !87
  %45 = getelementptr inbounds nuw %struct._arguments, ptr %44, i32 0, i32 3
  %46 = load ptr, ptr %45, align 8, !tbaa !96
  %47 = call i32 @validate_args(ptr noundef %43, ptr noundef %46)
  %48 = icmp ne i32 %47, 0
  br i1 %48, label %50, label %49

49:                                               ; preds = %42
  store i32 0, ptr %3, align 4
  br label %163

50:                                               ; preds = %42
  %51 = load ptr, ptr %5, align 8, !tbaa !87
  %52 = getelementptr inbounds nuw %struct._arguments, ptr %51, i32 0, i32 5
  %53 = load ptr, ptr %52, align 8, !tbaa !97
  %54 = icmp ne ptr %53, null
  br i1 %54, label %55, label %72

55:                                               ; preds = %50
  %56 = load ptr, ptr %5, align 8, !tbaa !87
  %57 = getelementptr inbounds nuw %struct._arguments, ptr %56, i32 0, i32 5
  %58 = load ptr, ptr %57, align 8, !tbaa !97
  %59 = getelementptr inbounds nuw %struct._arg, ptr %58, i32 0, i32 1
  %60 = load ptr, ptr %59, align 8, !tbaa !94
  %61 = icmp ne ptr %60, null
  br i1 %61, label %62, label %72

62:                                               ; preds = %55
  %63 = load ptr, ptr %4, align 8, !tbaa !31
  %64 = load ptr, ptr %5, align 8, !tbaa !87
  %65 = getelementptr inbounds nuw %struct._arguments, ptr %64, i32 0, i32 5
  %66 = load ptr, ptr %65, align 8, !tbaa !97
  %67 = getelementptr inbounds nuw %struct._arg, ptr %66, i32 0, i32 1
  %68 = load ptr, ptr %67, align 8, !tbaa !94
  %69 = call i32 @validate_expr(ptr noundef %63, ptr noundef %68, i32 noundef 1)
  %70 = icmp ne i32 %69, 0
  br i1 %70, label %72, label %71

71:                                               ; preds = %62
  store i32 0, ptr %3, align 4
  br label %163

72:                                               ; preds = %62, %55, %50
  %73 = load ptr, ptr %5, align 8, !tbaa !87
  %74 = getelementptr inbounds nuw %struct._arguments, ptr %73, i32 0, i32 6
  %75 = load ptr, ptr %74, align 8, !tbaa !98
  %76 = icmp eq ptr %75, null
  br i1 %76, label %77, label %78

77:                                               ; preds = %72
  br label %84

78:                                               ; preds = %72
  %79 = load ptr, ptr %5, align 8, !tbaa !87
  %80 = getelementptr inbounds nuw %struct._arguments, ptr %79, i32 0, i32 6
  %81 = load ptr, ptr %80, align 8, !tbaa !98
  %82 = getelementptr inbounds nuw %struct.asdl_expr_seq, ptr %81, i32 0, i32 0
  %83 = load i64, ptr %82, align 8, !tbaa !35
  br label %84

84:                                               ; preds = %78, %77
  %85 = phi i64 [ 0, %77 ], [ %83, %78 ]
  %86 = load ptr, ptr %5, align 8, !tbaa !87
  %87 = getelementptr inbounds nuw %struct._arguments, ptr %86, i32 0, i32 0
  %88 = load ptr, ptr %87, align 8, !tbaa !89
  %89 = icmp eq ptr %88, null
  br i1 %89, label %90, label %91

90:                                               ; preds = %84
  br label %97

91:                                               ; preds = %84
  %92 = load ptr, ptr %5, align 8, !tbaa !87
  %93 = getelementptr inbounds nuw %struct._arguments, ptr %92, i32 0, i32 0
  %94 = load ptr, ptr %93, align 8, !tbaa !89
  %95 = getelementptr inbounds nuw %struct.asdl_arg_seq, ptr %94, i32 0, i32 0
  %96 = load i64, ptr %95, align 8, !tbaa !35
  br label %97

97:                                               ; preds = %91, %90
  %98 = phi i64 [ 0, %90 ], [ %96, %91 ]
  %99 = load ptr, ptr %5, align 8, !tbaa !87
  %100 = getelementptr inbounds nuw %struct._arguments, ptr %99, i32 0, i32 1
  %101 = load ptr, ptr %100, align 8, !tbaa !92
  %102 = icmp eq ptr %101, null
  br i1 %102, label %103, label %104

103:                                              ; preds = %97
  br label %110

104:                                              ; preds = %97
  %105 = load ptr, ptr %5, align 8, !tbaa !87
  %106 = getelementptr inbounds nuw %struct._arguments, ptr %105, i32 0, i32 1
  %107 = load ptr, ptr %106, align 8, !tbaa !92
  %108 = getelementptr inbounds nuw %struct.asdl_arg_seq, ptr %107, i32 0, i32 0
  %109 = load i64, ptr %108, align 8, !tbaa !35
  br label %110

110:                                              ; preds = %104, %103
  %111 = phi i64 [ 0, %103 ], [ %109, %104 ]
  %112 = add i64 %98, %111
  %113 = icmp sgt i64 %85, %112
  br i1 %113, label %114, label %116

114:                                              ; preds = %110
  %115 = load ptr, ptr @PyExc_ValueError, align 8, !tbaa !30
  call void @PyErr_SetString(ptr noundef %115, ptr noundef @.str.42)
  store i32 0, ptr %3, align 4
  br label %163

116:                                              ; preds = %110
  %117 = load ptr, ptr %5, align 8, !tbaa !87
  %118 = getelementptr inbounds nuw %struct._arguments, ptr %117, i32 0, i32 4
  %119 = load ptr, ptr %118, align 8, !tbaa !99
  %120 = icmp eq ptr %119, null
  br i1 %120, label %121, label %122

121:                                              ; preds = %116
  br label %128

122:                                              ; preds = %116
  %123 = load ptr, ptr %5, align 8, !tbaa !87
  %124 = getelementptr inbounds nuw %struct._arguments, ptr %123, i32 0, i32 4
  %125 = load ptr, ptr %124, align 8, !tbaa !99
  %126 = getelementptr inbounds nuw %struct.asdl_expr_seq, ptr %125, i32 0, i32 0
  %127 = load i64, ptr %126, align 8, !tbaa !35
  br label %128

128:                                              ; preds = %122, %121
  %129 = phi i64 [ 0, %121 ], [ %127, %122 ]
  %130 = load ptr, ptr %5, align 8, !tbaa !87
  %131 = getelementptr inbounds nuw %struct._arguments, ptr %130, i32 0, i32 3
  %132 = load ptr, ptr %131, align 8, !tbaa !96
  %133 = icmp eq ptr %132, null
  br i1 %133, label %134, label %135

134:                                              ; preds = %128
  br label %141

135:                                              ; preds = %128
  %136 = load ptr, ptr %5, align 8, !tbaa !87
  %137 = getelementptr inbounds nuw %struct._arguments, ptr %136, i32 0, i32 3
  %138 = load ptr, ptr %137, align 8, !tbaa !96
  %139 = getelementptr inbounds nuw %struct.asdl_arg_seq, ptr %138, i32 0, i32 0
  %140 = load i64, ptr %139, align 8, !tbaa !35
  br label %141

141:                                              ; preds = %135, %134
  %142 = phi i64 [ 0, %134 ], [ %140, %135 ]
  %143 = icmp ne i64 %129, %142
  br i1 %143, label %144, label %146

144:                                              ; preds = %141
  %145 = load ptr, ptr @PyExc_ValueError, align 8, !tbaa !30
  call void @PyErr_SetString(ptr noundef %145, ptr noundef @.str.43)
  store i32 0, ptr %3, align 4
  br label %163

146:                                              ; preds = %141
  %147 = load ptr, ptr %4, align 8, !tbaa !31
  %148 = load ptr, ptr %5, align 8, !tbaa !87
  %149 = getelementptr inbounds nuw %struct._arguments, ptr %148, i32 0, i32 6
  %150 = load ptr, ptr %149, align 8, !tbaa !98
  %151 = call i32 @validate_exprs(ptr noundef %147, ptr noundef %150, i32 noundef 1, i32 noundef 0)
  %152 = icmp ne i32 %151, 0
  br i1 %152, label %153, label %160

153:                                              ; preds = %146
  %154 = load ptr, ptr %4, align 8, !tbaa !31
  %155 = load ptr, ptr %5, align 8, !tbaa !87
  %156 = getelementptr inbounds nuw %struct._arguments, ptr %155, i32 0, i32 4
  %157 = load ptr, ptr %156, align 8, !tbaa !99
  %158 = call i32 @validate_exprs(ptr noundef %154, ptr noundef %157, i32 noundef 1, i32 noundef 1)
  %159 = icmp ne i32 %158, 0
  br label %160

160:                                              ; preds = %153, %146
  %161 = phi i1 [ false, %146 ], [ %159, %153 ]
  %162 = zext i1 %161 to i32
  store i32 %162, ptr %3, align 4
  br label %163

163:                                              ; preds = %160, %144, %114, %71, %49, %41, %19
  %164 = load i32, ptr %3, align 4
  ret i32 %164
}