; Function Attrs: nounwind uwtable
define internal fastcc range(i32 0, 2) i32 @validate_arguments(ptr noundef nonnull captures(none) %0, ptr noundef readonly captures(none) %1) unnamed_addr #0 {
  %3 = load ptr, ptr %1, align 8, !tbaa !95
  %4 = tail call fastcc i32 @validate_args(ptr noundef %0, ptr noundef %3)
  %.not = icmp eq i32 %4, 0
  br i1 %.not, label %validate_exprs.exit.thread, label %5

5:                                                ; preds = %2
  %6 = getelementptr inbounds nuw i8, ptr %1, i64 8
  %7 = load ptr, ptr %6, align 8, !tbaa !98
  %8 = tail call fastcc i32 @validate_args(ptr noundef %0, ptr noundef %7)
  %.not37 = icmp eq i32 %8, 0
  br i1 %.not37, label %validate_exprs.exit.thread, label %9

9:                                                ; preds = %5
  %10 = getelementptr inbounds nuw i8, ptr %1, i64 16
  %11 = load ptr, ptr %10, align 8, !tbaa !99
  %.not38 = icmp eq ptr %11, null
  br i1 %.not38, label %17, label %12

12:                                               ; preds = %9
  %13 = getelementptr inbounds nuw i8, ptr %11, i64 8
  %14 = load ptr, ptr %13, align 8, !tbaa !100
  %.not39 = icmp eq ptr %14, null
  br i1 %.not39, label %17, label %15

15:                                               ; preds = %12
  %16 = tail call fastcc i32 @validate_expr(ptr noundef %0, ptr noundef nonnull %14, i32 noundef 1)
  %.not40 = icmp eq i32 %16, 0
  br i1 %.not40, label %validate_exprs.exit.thread, label %17

17:                                               ; preds = %15, %12, %9
  %18 = getelementptr inbounds nuw i8, ptr %1, i64 24
  %19 = load ptr, ptr %18, align 8, !tbaa !102
  %20 = tail call fastcc i32 @validate_args(ptr noundef %0, ptr noundef %19)
  %.not41 = icmp eq i32 %20, 0
  br i1 %.not41, label %validate_exprs.exit.thread, label %21

21:                                               ; preds = %17
  %22 = getelementptr inbounds nuw i8, ptr %1, i64 40
  %23 = load ptr, ptr %22, align 8, !tbaa !103
  %.not42 = icmp eq ptr %23, null
  br i1 %.not42, label %29, label %24

24:                                               ; preds = %21
  %25 = getelementptr inbounds nuw i8, ptr %23, i64 8
  %26 = load ptr, ptr %25, align 8, !tbaa !100
  %.not43 = icmp eq ptr %26, null
  br i1 %.not43, label %29, label %27

27:                                               ; preds = %24
  %28 = tail call fastcc i32 @validate_expr(ptr noundef %0, ptr noundef nonnull %26, i32 noundef 1)
  %.not44 = icmp eq i32 %28, 0
  br i1 %.not44, label %validate_exprs.exit.thread, label %29

29:                                               ; preds = %27, %24, %21
  %30 = getelementptr inbounds nuw i8, ptr %1, i64 48
  %31 = load ptr, ptr %30, align 8, !tbaa !104
  %32 = icmp eq ptr %31, null
  br i1 %32, label %35, label %33

33:                                               ; preds = %29
  %34 = load i64, ptr %31, align 8, !tbaa !27
  br label %35

35:                                               ; preds = %29, %33
  %36 = phi i64 [ %34, %33 ], [ 0, %29 ]
  %37 = load ptr, ptr %1, align 8, !tbaa !95
  %38 = icmp eq ptr %37, null
  br i1 %38, label %41, label %39

39:                                               ; preds = %35
  %40 = load i64, ptr %37, align 8, !tbaa !27
  br label %41

41:                                               ; preds = %35, %39
  %42 = phi i64 [ %40, %39 ], [ 0, %35 ]
  %43 = load ptr, ptr %6, align 8, !tbaa !98
  %44 = icmp eq ptr %43, null
  br i1 %44, label %47, label %45

45:                                               ; preds = %41
  %46 = load i64, ptr %43, align 8, !tbaa !27
  br label %47

47:                                               ; preds = %41, %45
  %48 = phi i64 [ %46, %45 ], [ 0, %41 ]
  %49 = add i64 %48, %42
  %50 = icmp sgt i64 %36, %49
  br i1 %50, label %validate_exprs.exit.thread.sink.split, label %51

51:                                               ; preds = %47
  %52 = getelementptr inbounds nuw i8, ptr %1, i64 32
  %53 = load ptr, ptr %52, align 8, !tbaa !105
  %54 = icmp eq ptr %53, null
  br i1 %54, label %57, label %55

55:                                               ; preds = %51
  %56 = load i64, ptr %53, align 8, !tbaa !27
  br label %57

57:                                               ; preds = %51, %55
  %58 = phi i64 [ %56, %55 ], [ 0, %51 ]
  %59 = load ptr, ptr %18, align 8, !tbaa !102
  %60 = icmp eq ptr %59, null
  br i1 %60, label %63, label %61

61:                                               ; preds = %57
  %62 = load i64, ptr %59, align 8, !tbaa !27
  br label %63

63:                                               ; preds = %57, %61
  %64 = phi i64 [ %62, %61 ], [ 0, %57 ]
  %.not45 = icmp eq i64 %58, %64
  br i1 %.not45, label %.preheader, label %validate_exprs.exit.thread.sink.split

.preheader:                                       ; preds = %63
  %65 = getelementptr inbounds nuw i8, ptr %31, i64 16
  br i1 %32, label %.split.us, label %.preheader.split

.preheader.split:                                 ; preds = %.preheader, %.critedge.i
  %.015.i = phi i64 [ %72, %.critedge.i ], [ 0, %.preheader ]
  %66 = load i64, ptr %31, align 8, !tbaa !27
  %67 = icmp slt i64 %.015.i, %66
  br i1 %67, label %68, label %.split.us.loopexit

68:                                               ; preds = %.preheader.split
  %69 = getelementptr [1 x ptr], ptr %65, i64 0, i64 %.015.i
  %70 = load ptr, ptr %69, align 8, !tbaa !29
  %.not.i = icmp eq ptr %70, null
  br i1 %.not.i, label %validate_exprs.exit.thread.sink.split, label %.critedge.i

.critedge.i:                                      ; preds = %68
  %71 = tail call fastcc i32 @validate_expr(ptr noundef nonnull %0, ptr noundef nonnull %70, i32 noundef 1)
  %.not19.i = icmp eq i32 %71, 0
  %72 = add nuw nsw i64 %.015.i, 1
  br i1 %.not19.i, label %validate_exprs.exit.thread, label %.preheader.split, !llvm.loop !31

.split.us.loopexit:                               ; preds = %.preheader.split
  %.pre = load ptr, ptr %52, align 8, !tbaa !105
  br label %.split.us

.split.us:                                        ; preds = %.split.us.loopexit, %.preheader
  %73 = phi ptr [ %.pre, %.split.us.loopexit ], [ %53, %.preheader ]
  %74 = icmp eq ptr %73, null
  %75 = getelementptr inbounds nuw i8, ptr %73, i64 16
  br i1 %74, label %validate_exprs.exit.thread, label %.split63

.split63:                                         ; preds = %.split.us
  %76 = load i64, ptr %73, align 8, !tbaa !27
  %77 = icmp slt i64 %76, 1
  br i1 %77, label %validate_exprs.exit.thread, label %.lr.ph

.lr.ph:                                           ; preds = %.split63, %.critedge.i54
  %78 = phi i64 [ %83, %.critedge.i54 ], [ %76, %.split63 ]
  %.015.i4764 = phi i64 [ %84, %.critedge.i54 ], [ 0, %.split63 ]
  %79 = getelementptr [1 x ptr], ptr %75, i64 0, i64 %.015.i4764
  %80 = load ptr, ptr %79, align 8, !tbaa !29
  %.not.i52 = icmp eq ptr %80, null
  br i1 %.not.i52, label %.critedge.i54, label %81

81:                                               ; preds = %.lr.ph
  %82 = tail call fastcc i32 @validate_expr(ptr noundef nonnull %0, ptr noundef nonnull %80, i32 noundef 1)
  %.not19.i53 = icmp eq i32 %82, 0
  br i1 %.not19.i53, label %validate_exprs.exit.thread, label %..critedge.i54_crit_edge

..critedge.i54_crit_edge:                         ; preds = %81
  %.pre73 = load i64, ptr %73, align 8, !tbaa !27
  br label %.critedge.i54

.critedge.i54:                                    ; preds = %..critedge.i54_crit_edge, %.lr.ph
  %83 = phi i64 [ %.pre73, %..critedge.i54_crit_edge ], [ %78, %.lr.ph ]
  %84 = add nuw nsw i64 %.015.i4764, 1
  %.not72 = icmp slt i64 %84, %83
  br i1 %.not72, label %.lr.ph, label %validate_exprs.exit.thread, !llvm.loop !31

validate_exprs.exit.thread.sink.split:            ; preds = %68, %63, %47
  %.str.73.sink = phi ptr [ @.str.42, %47 ], [ @.str.43, %63 ], [ @.str.73, %68 ]
  %85 = load ptr, ptr @PyExc_ValueError, align 8, !tbaa !33
  tail call void @PyErr_SetString(ptr noundef %85, ptr noundef nonnull %.str.73.sink) #5
  br label %validate_exprs.exit.thread

validate_exprs.exit.thread:                       ; preds = %.critedge.i, %81, %.critedge.i54, %validate_exprs.exit.thread.sink.split, %.split.us, %.split63, %27, %17, %15, %2, %5
  %.0 = phi i32 [ 0, %5 ], [ 0, %2 ], [ 0, %15 ], [ 0, %17 ], [ 0, %27 ], [ 1, %.split.us ], [ 1, %.split63 ], [ 0, %validate_exprs.exit.thread.sink.split ], [ 1, %.critedge.i54 ], [ 0, %81 ], [ 0, %.critedge.i ]
  ret i32 %.0
}